; Function Attrs: nounwind uwtable
define internal fastcc void @_jumbleJsonConstructorExpr(ptr noundef %0, ptr noundef nonnull readonly captures(none) %1) unnamed_addr #0 {
  %3 = getelementptr inbounds nuw i8, ptr %1, i64 4
  %4 = load ptr, ptr %0, align 8
  %5 = getelementptr inbounds nuw i8, ptr %0, i64 8
  %6 = load i64, ptr %5, align 8
  br label %.lr.ph.i

.lr.ph.i:                                         ; preds = %10, %2
  %.026.i = phi ptr [ %15, %10 ], [ %3, %2 ]
  %.02125.i = phi i64 [ %16, %10 ], [ 4, %2 ]
  %.02224.i = phi i64 [ %14, %10 ], [ %6, %2 ]
  %7 = icmp ugt i64 %.02224.i, 1023
  br i1 %7, label %8, label %10

8:                                                ; preds = %.lr.ph.i
  %9 = tail call i64 @hash_bytes_extended(ptr noundef %4, i32 noundef 1024, i64 noundef 0) #9
  store i64 %9, ptr %4, align 1
  br label %10

10:                                               ; preds = %8, %.lr.ph.i
  %.1.i = phi i64 [ 8, %8 ], [ %.02224.i, %.lr.ph.i ]
  %11 = sub nuw nsw i64 1024, %.1.i
  %12 = tail call i64 @llvm.umin.i64(i64 %.02125.i, i64 %11)
  %13 = getelementptr inbounds nuw i8, ptr %4, i64 %.1.i
  tail call void @llvm.memcpy.p0.p0.i64(ptr noundef nonnull align 1 dereferenceable(1) %13, ptr noundef nonnull align 1 dereferenceable(1) %.026.i, i64 %12, i1 false)
  %14 = add nuw nsw i64 %12, %.1.i
  %15 = getelementptr inbounds nuw i8, ptr %.026.i, i64 %12
  %16 = sub i64 %.02125.i, %12
  %.not.i = icmp eq i64 %16, 0
  br i1 %.not.i, label %AppendJumble.exit, label %.lr.ph.i, !llvm.loop !7

AppendJumble.exit:                                ; preds = %10
  store i64 %14, ptr %5, align 8
  %17 = getelementptr inbounds nuw i8, ptr %1, i64 8
  %18 = load ptr, ptr %17, align 8
  tail call fastcc void @_jumbleNode(ptr noundef nonnull %0, ptr noundef %18)
  %19 = getelementptr inbounds nuw i8, ptr %1, i64 16
  %20 = load ptr, ptr %19, align 8
  tail call fastcc void @_jumbleNode(ptr noundef nonnull %0, ptr noundef %20)
  %21 = getelementptr inbounds nuw i8, ptr %1, i64 24
  %22 = load ptr, ptr %21, align 8
  tail call fastcc void @_jumbleNode(ptr noundef nonnull %0, ptr noundef %22)
  %23 = getelementptr inbounds nuw i8, ptr %1, i64 32
  %24 = load ptr, ptr %23, align 8
  tail call fastcc void @_jumbleNode(ptr noundef nonnull %0, ptr noundef %24)
  %25 = getelementptr inbounds nuw i8, ptr %1, i64 40
  %26 = load ptr, ptr %0, align 8
  %27 = load i64, ptr %5, align 8
  br label %.lr.ph.i15

.lr.ph.i15:                                       ; preds = %31, %AppendJumble.exit
  %.026.i16 = phi ptr [ %36, %31 ], [ %25, %AppendJumble.exit ]
  %.02125.i17 = phi i64 [ %37, %31 ], [ 1, %AppendJumble.exit ]
  %.02224.i18 = phi i64 [ %35, %31 ], [ %27, %AppendJumble.exit ]
  %28 = icmp ugt i64 %.02224.i18, 1023
  br i1 %28, label %29, label %31

29:                                               ; preds = %.lr.ph.i15
  %30 = tail call i64 @hash_bytes_extended(ptr noundef %26, i32 noundef 1024, i64 noundef 0) #9
  store i64 %30, ptr %26, align 1
  br label %31

31:                                               ; preds = %29, %.lr.ph.i15
  %.1.i19 = phi i64 [ 8, %29 ], [ %.02224.i18, %.lr.ph.i15 ]
  %32 = sub nuw nsw i64 1024, %.1.i19
  %33 = tail call i64 @llvm.umin.i64(i64 %.02125.i17, i64 %32)
  %34 = getelementptr inbounds nuw i8, ptr %26, i64 %.1.i19
  tail call void @llvm.memcpy.p0.p0.i64(ptr noundef nonnull align 1 dereferenceable(1) %34, ptr noundef nonnull align 1 dereferenceable(1) %.026.i16, i64 %33, i1 false)
  %35 = add nuw nsw i64 %33, %.1.i19
  %36 = getelementptr inbounds nuw i8, ptr %.026.i16, i64 %33
  %37 = sub i64 %.02125.i17, %33
  %.not.i20 = icmp eq i64 %37, 0
  br i1 %.not.i20, label %AppendJumble.exit21, label %.lr.ph.i15, !llvm.loop !7

AppendJumble.exit21:                              ; preds = %31
  store i64 %35, ptr %5, align 8
  %38 = getelementptr inbounds nuw i8, ptr %1, i64 41
  %39 = load ptr, ptr %0, align 8
  br label %.lr.ph.i22

.lr.ph.i22:                                       ; preds = %43, %AppendJumble.exit21
  %.026.i23 = phi ptr [ %48, %43 ], [ %38, %AppendJumble.exit21 ]
  %.02125.i24 = phi i64 [ %49, %43 ], [ 1, %AppendJumble.exit21 ]
  %.02224.i25 = phi i64 [ %47, %43 ], [ %35, %AppendJumble.exit21 ]
  %40 = icmp ugt i64 %.02224.i25, 1023
  br i1 %40, label %41, label %43

41:                                               ; preds = %.lr.ph.i22
  %42 = tail call i64 @hash_bytes_extended(ptr noundef %39, i32 noundef 1024, i64 noundef 0) #9
  store i64 %42, ptr %39, align 1
  br label %43

43:                                               ; preds = %41, %.lr.ph.i22
  %.1.i26 = phi i64 [ 8, %41 ], [ %.02224.i25, %.lr.ph.i22 ]
  %44 = sub nuw nsw i64 1024, %.1.i26
  %45 = tail call i64 @llvm.umin.i64(i64 %.02125.i24, i64 %44)
  %46 = getelementptr inbounds nuw i8, ptr %39, i64 %.1.i26
  tail call void @llvm.memcpy.p0.p0.i64(ptr noundef nonnull align 1 dereferenceable(1) %46, ptr noundef nonnull align 1 dereferenceable(1) %.026.i23, i64 %45, i1 false)
  %47 = add nuw nsw i64 %45, %.1.i26
  %48 = getelementptr inbounds nuw i8, ptr %.026.i23, i64 %45
  %49 = sub i64 %.02125.i24, %45
  %.not.i27 = icmp eq i64 %49, 0
  br i1 %.not.i27, label %AppendJumble.exit28, label %.lr.ph.i22, !llvm.loop !7

AppendJumble.exit28:                              ; preds = %43
  store i64 %47, ptr %5, align 8
  ret void
}